target datalayout = "e-m:e-p270:32:32-p271:32:32-p272:64:64-i64:64-i128:128-f80:128-n8:16:32:64-S128"
target triple = "x86_64-pc-linux-gnu"

@.str.25 = private unnamed_addr constant [126 x i8] c"generated/home/dtcxzyw/WorkSpace/Projects/compilers/llvm-opt-benchmark/bench/libquic/libquic/boringssl/crypto/x509v3/v3_alt.c\00", align 1

; Function Attrs: nounwind uwtable
define hidden ptr @v2i_GENERAL_NAME(ptr noundef %0, ptr noundef %1, ptr noundef %2) #0 {
  %4 = alloca ptr, align 8
  %5 = alloca ptr, align 8
  %6 = alloca ptr, align 8
  store ptr %0, ptr %4, align 8, !tbaa !6
  store ptr %1, ptr %5, align 8, !tbaa !21
  store ptr %2, ptr %6, align 8, !tbaa !23
  %7 = load ptr, ptr %4, align 8, !tbaa !6
  %8 = load ptr, ptr %5, align 8, !tbaa !21
  %9 = load ptr, ptr %6, align 8, !tbaa !23
  %10 = call ptr @v2i_GENERAL_NAME_ex(ptr noundef null, ptr noundef %7, ptr noundef %8, ptr noundef %9, i32 noundef 0)
  ret ptr %10
}

; Function Attrs: nounwind uwtable
define hidden ptr @v2i_GENERAL_NAMES(ptr noundef %0, ptr noundef %1, ptr noundef %2) #0 {
  %4 = alloca ptr, align 8
  %5 = alloca ptr, align 8
  %6 = alloca ptr, align 8
  %7 = alloca ptr, align 8
  %8 = alloca ptr, align 8
  %9 = alloca ptr, align 8
  %10 = alloca ptr, align 8
  %11 = alloca i64, align 8
  %12 = alloca i32, align 4
  store ptr %0, ptr %5, align 8, !tbaa !6
  store ptr %1, ptr %6, align 8, !tbaa !21
  store ptr %2, ptr %7, align 8, !tbaa !13
  call void @llvm.lifetime.start.p0(i64 8, ptr %8) #6
  call void @llvm.lifetime.start.p0(i64 8, ptr %9) #6
  store ptr null, ptr %9, align 8, !tbaa !11
  call void @llvm.lifetime.start.p0(i64 8, ptr %10) #6
  call void @llvm.lifetime.start.p0(i64 8, ptr %11) #6
  %13 = call ptr @sk_new_null()
  store ptr %13, ptr %9, align 8, !tbaa !11
  %14 = icmp ne ptr %13, null
  br i1 %14, label %16, label %15

15:                                               ; preds = %3
  call void @ERR_put_error(i32 noundef 20, i32 noundef 0, i32 noundef 65, ptr noundef @.str.25, i32 noundef 410)
  store ptr null, ptr %4, align 8
  store i32 1, ptr %12, align 4
  br label %43

16:                                               ; preds = %3
  store i64 0, ptr %11, align 8, !tbaa !15
  br label %17

17:                                               ; preds = %36, %16
  %18 = load i64, ptr %11, align 8, !tbaa !15
  %19 = load ptr, ptr %7, align 8, !tbaa !13
  %20 = call i64 @sk_num(ptr noundef %19)
  %21 = icmp ult i64 %18, %20
  br i1 %21, label %22, label %39

22:                                               ; preds = %17
  %23 = load ptr, ptr %7, align 8, !tbaa !13
  %24 = load i64, ptr %11, align 8, !tbaa !15
  %25 = call ptr @sk_value(ptr noundef %23, i64 noundef %24)
  store ptr %25, ptr %10, align 8, !tbaa !23
  %26 = load ptr, ptr %5, align 8, !tbaa !6
  %27 = load ptr, ptr %6, align 8, !tbaa !21
  %28 = load ptr, ptr %10, align 8, !tbaa !23
  %29 = call ptr @v2i_GENERAL_NAME(ptr noundef %26, ptr noundef %27, ptr noundef %28)
  store ptr %29, ptr %8, align 8, !tbaa !17
  %30 = icmp ne ptr %29, null
  br i1 %30, label %32, label %31

31:                                               ; preds = %22
  br label %41

32:                                               ; preds = %22
  %33 = load ptr, ptr %9, align 8, !tbaa !11
  %34 = load ptr, ptr %8, align 8, !tbaa !17
  %35 = call i64 @sk_push(ptr noundef %33, ptr noundef %34)
  br label %36

36:                                               ; preds = %32
  %37 = load i64, ptr %11, align 8, !tbaa !15
  %38 = add i64 %37, 1
  store i64 %38, ptr %11, align 8, !tbaa !15
  br label %17, !llvm.loop !44

39:                                               ; preds = %17
  %40 = load ptr, ptr %9, align 8, !tbaa !11
  store ptr %40, ptr %4, align 8
  store i32 1, ptr %12, align 4
  br label %43

41:                                               ; preds = %31
  %42 = load ptr, ptr %9, align 8, !tbaa !11
  call void @sk_pop_free(ptr noundef %42, ptr noundef @GENERAL_NAME_free)
  store ptr null, ptr %4, align 8
  store i32 1, ptr %12, align 4
  br label %43

43:                                               ; preds = %41, %39, %15
  call void @llvm.lifetime.end.p0(i64 8, ptr %11) #6
  call void @llvm.lifetime.end.p0(i64 8, ptr %10) #6
  call void @llvm.lifetime.end.p0(i64 8, ptr %9) #6
  call void @llvm.lifetime.end.p0(i64 8, ptr %8) #6
  %44 = load ptr, ptr %4, align 8
  ret ptr %44
}