; Function Attrs: nounwind uwtable
define hidden ptr @v2i_GENERAL_NAMES(ptr noundef readnone captures(none) %0, ptr noundef %1, ptr noundef %2) local_unnamed_addr #0 {
  %4 = tail call ptr @sk_new_null() #7
  %.not = icmp eq ptr %4, null
  br i1 %.not, label %6, label %.preheader

.preheader:                                       ; preds = %3
  %5 = tail call i64 @sk_num(ptr noundef %2) #7
  %.not17 = icmp eq i64 %5, 0
  br i1 %.not17, label %.loopexit, label %.lr.ph

6:                                                ; preds = %3
  tail call void @ERR_put_error(i32 noundef 20, i32 noundef 0, i32 noundef 65, ptr noundef nonnull @.str.25, i32 noundef 410) #7
  br label %.loopexit

.lr.ph:                                           ; preds = %.preheader, %9
  %.016 = phi i64 [ %11, %9 ], [ 0, %.preheader ]
  %7 = tail call ptr @sk_value(ptr noundef %2, i64 noundef %.016) #7
  %8 = tail call ptr @v2i_GENERAL_NAME_ex(ptr noundef null, ptr noundef readnone %0, ptr noundef %1, ptr noundef readonly %7, i32 noundef 0)
  %.not15 = icmp eq ptr %8, null
  br i1 %.not15, label %14, label %9

9:                                                ; preds = %.lr.ph
  %10 = tail call i64 @sk_push(ptr noundef nonnull %4, ptr noundef nonnull %8) #7
  %11 = add nuw i64 %.016, 1
  %12 = tail call i64 @sk_num(ptr noundef %2) #7
  %13 = icmp ult i64 %11, %12
  br i1 %13, label %.lr.ph, label %.loopexit, !llvm.loop !36

14:                                               ; preds = %.lr.ph
  tail call void @sk_pop_free(ptr noundef nonnull %4, ptr noundef nonnull @GENERAL_NAME_free) #7
  br label %.loopexit

.loopexit:                                        ; preds = %9, %.preheader, %14, %6
  %.012 = phi ptr [ null, %14 ], [ null, %6 ], [ %4, %.preheader ], [ %4, %9 ]
  ret ptr %.012
}